target datalayout = "e-m:e-p270:32:32-p271:32:32-p272:64:64-i64:64-i128:128-f80:128-n8:16:32:64-S128"
target triple = "x86_64-pc-linux-gnu"

%"class.llvm::SmallVectorBase" = type { ptr, i32, i32 }
%"class.std::vector" = type { %"struct.std::_Vector_base" }
%"struct.std::_Vector_base" = type { %"struct.std::_Vector_base<llvm::Loop *, std::allocator<llvm::Loop *>>::_Vector_impl" }
%"struct.std::_Vector_base<llvm::Loop *, std::allocator<llvm::Loop *>>::_Vector_impl" = type { %"struct.std::_Vector_base<llvm::Loop *, std::allocator<llvm::Loop *>>::_Vector_impl_data" }
%"struct.std::_Vector_base<llvm::Loop *, std::allocator<llvm::Loop *>>::_Vector_impl_data" = type { ptr, ptr, ptr }
%"class.llvm::SmallVectorImpl" = type { %"class.llvm::SmallVectorTemplateBase" }
%"class.llvm::SmallVectorTemplateBase" = type { %"class.llvm::SmallVectorTemplateCommon" }
%"class.llvm::SmallVectorTemplateCommon" = type { %"class.llvm::SmallVectorBase" }
%"class.llvm::LoopInfoBase" = type { %"class.llvm::DenseMap", %"class.std::vector", %"class.llvm::BumpPtrAllocatorImpl" }
%"class.llvm::DenseMap" = type <{ ptr, i32, i32, i32, [4 x i8] }>
%"class.llvm::BumpPtrAllocatorImpl" = type { ptr, ptr, %"class.llvm::SmallVector.31", %"class.llvm::SmallVector.36", i64, i64 }
%"class.llvm::SmallVector.31" = type { %"class.llvm::SmallVectorImpl.32", %"struct.llvm::SmallVectorStorage.35" }
%"class.llvm::SmallVectorImpl.32" = type { %"class.llvm::SmallVectorTemplateBase.33" }
%"class.llvm::SmallVectorTemplateBase.33" = type { %"class.llvm::SmallVectorTemplateCommon.34" }
%"class.llvm::SmallVectorTemplateCommon.34" = type { %"class.llvm::SmallVectorBase" }
%"struct.llvm::SmallVectorStorage.35" = type { [32 x i8] }
%"class.llvm::SmallVector.36" = type { %"class.llvm::SmallVectorImpl.37" }
%"class.llvm::SmallVectorImpl.37" = type { %"class.llvm::SmallVectorTemplateBase.38" }
%"class.llvm::SmallVectorTemplateBase.38" = type { %"class.llvm::SmallVectorTemplateCommon.39" }
%"class.llvm::SmallVectorTemplateCommon.39" = type { %"class.llvm::SmallVectorBase" }
%"class.llvm::LoopInfo" = type { %"class.llvm::LoopInfoBase" }
%"class.llvm::DominatorTree" = type { %"class.llvm::DominatorTreeBase.base", [4 x i8] }
%"class.llvm::DominatorTreeBase.base" = type <{ %"class.llvm::SmallVector.62", %"class.llvm::SmallVector.64", [8 x i8], ptr, ptr, i8, [3 x i8], i32, i32 }>
%"class.llvm::SmallVector.62" = type { %"class.llvm::SmallVectorImpl", %"struct.llvm::SmallVectorStorage.63" }
%"struct.llvm::SmallVectorStorage.63" = type { [8 x i8] }
%"class.llvm::SmallVector.64" = type { %"class.llvm::SmallVectorImpl.65", %"struct.llvm::SmallVectorStorage.68" }
%"class.llvm::SmallVectorImpl.65" = type { %"class.llvm::SmallVectorTemplateBase.66" }
%"class.llvm::SmallVectorTemplateBase.66" = type { %"class.llvm::SmallVectorTemplateCommon.67" }
%"class.llvm::SmallVectorTemplateCommon.67" = type { %"class.llvm::SmallVectorBase" }
%"struct.llvm::SmallVectorStorage.68" = type { [48 x i8] }
%"class.llvm::LoopInfoWrapperPass" = type { %"class.llvm::FunctionPass.base", %"class.llvm::LoopInfo" }
%"class.llvm::FunctionPass.base" = type { %"class.llvm::Pass.base" }
%"class.llvm::Pass.base" = type <{ ptr, ptr, ptr, i32 }>
%"class.llvm::DominatorTreeWrapperPass" = type { %"class.llvm::FunctionPass.base", [4 x i8], %"class.llvm::DominatorTree" }
%"class.llvm::Pass" = type <{ ptr, ptr, ptr, i32, [4 x i8] }>
%"class.__gnu_cxx::__normal_iterator.606" = type { ptr }
%"class.llvm::AnalysisResolver" = type { %"class.std::vector.601", ptr }
%"class.std::vector.601" = type { %"struct.std::_Vector_base.602" }
%"struct.std::_Vector_base.602" = type { %"struct.std::_Vector_base<std::pair<const void *, llvm::Pass *>, std::allocator<std::pair<const void *, llvm::Pass *>>>::_Vector_impl" }
%"struct.std::_Vector_base<std::pair<const void *, llvm::Pass *>, std::allocator<std::pair<const void *, llvm::Pass *>>>::_Vector_impl" = type { %"struct.std::_Vector_base<std::pair<const void *, llvm::Pass *>, std::allocator<std::pair<const void *, llvm::Pass *>>>::_Vector_impl_data" }
%"struct.std::_Vector_base<std::pair<const void *, llvm::Pass *>, std::allocator<std::pair<const void *, llvm::Pass *>>>::_Vector_impl_data" = type { ptr, ptr, ptr }
%"struct.std::pair.607" = type { ptr, ptr }

@_ZN4llvm24DominatorTreeWrapperPass2IDE = external global i8, align 1

; Function Attrs: mustprogress nounwind uwtable
define linkonce_odr hidden noundef nonnull align 8 dereferenceable(8) ptr @_ZNK9__gnu_cxx17__normal_iteratorIPSt4pairIPKvPN4llvm4PassEESt6vectorIS7_SaIS7_EEE4baseEv(ptr noundef nonnull align 8 dereferenceable(8) %0) #0 comdat align 2 {
  %2 = alloca ptr, align 8
  store ptr %0, ptr %2, align 8
  %3 = load ptr, ptr %2, align 8
  %4 = getelementptr inbounds nuw %"class.__gnu_cxx::__normal_iterator.606", ptr %3, i32 0, i32 0
  ret ptr %4
}

; Function Attrs: mustprogress nounwind uwtable
define linkonce_odr hidden void @_ZN9__gnu_cxx17__normal_iteratorIPSt4pairIPKvPN4llvm4PassEESt6vectorIS7_SaIS7_EEEC2ERKS8_(ptr noundef nonnull align 8 dereferenceable(8) %0, ptr noundef nonnull align 8 dereferenceable(8) %1) unnamed_addr #0 comdat align 2 {
  %3 = alloca ptr, align 8
  %4 = alloca ptr, align 8
  store ptr %0, ptr %3, align 8
  store ptr %1, ptr %4, align 8
  %5 = load ptr, ptr %3, align 8
  %6 = getelementptr inbounds nuw %"class.__gnu_cxx::__normal_iterator.606", ptr %5, i32 0, i32 0
  %7 = load ptr, ptr %4, align 8
  %8 = load ptr, ptr %7, align 8
  store ptr %8, ptr %6, align 8
  ret void
}

; Function Attrs: mustprogress nounwind uwtable
define linkonce_odr hidden noundef nonnull align 8 dereferenceable(8) ptr @_ZN9__gnu_cxx17__normal_iteratorIPSt4pairIPKvPN4llvm4PassEESt6vectorIS7_SaIS7_EEEppEv(ptr noundef nonnull align 8 dereferenceable(8) %0) #0 comdat align 2 {
  %2 = alloca ptr, align 8
  store ptr %0, ptr %2, align 8
  %3 = load ptr, ptr %2, align 8
  %4 = getelementptr inbounds nuw %"class.__gnu_cxx::__normal_iterator.606", ptr %3, i32 0, i32 0
  %5 = load ptr, ptr %4, align 8
  %6 = getelementptr inbounds %"struct.std::pair.607", ptr %5, i32 1
  store ptr %6, ptr %4, align 8
  ret ptr %3
}

; Function Attrs: mustprogress nounwind uwtable
define linkonce_odr hidden noundef nonnull align 8 dereferenceable(16) ptr @_ZNK9__gnu_cxx17__normal_iteratorIPSt4pairIPKvPN4llvm4PassEESt6vectorIS7_SaIS7_EEEdeEv(ptr noundef nonnull align 8 dereferenceable(8) %0) #0 comdat align 2 {
  %2 = alloca ptr, align 8
  store ptr %0, ptr %2, align 8
  %3 = load ptr, ptr %2, align 8
  %4 = getelementptr inbounds nuw %"class.__gnu_cxx::__normal_iterator.606", ptr %3, i32 0, i32 0
  %5 = load ptr, ptr %4, align 8
  ret ptr %5
}

; Function Attrs: mustprogress nounwind uwtable
define linkonce_odr noundef zeroext i1 @_ZN9__gnu_cxxneIPSt4pairIPKvPN4llvm4PassEESt6vectorIS7_SaIS7_EEEEbRKNS_17__normal_iteratorIT_T0_EESH_(ptr noundef nonnull align 8 dereferenceable(8) %0, ptr noundef nonnull align 8 dereferenceable(8) %1) #0 comdat {
  %3 = alloca ptr, align 8
  %4 = alloca ptr, align 8
  store ptr %0, ptr %3, align 8
  store ptr %1, ptr %4, align 8
  %5 = load ptr, ptr %3, align 8
  %6 = call noundef nonnull align 8 dereferenceable(8) ptr @_ZNK9__gnu_cxx17__normal_iteratorIPSt4pairIPKvPN4llvm4PassEESt6vectorIS7_SaIS7_EEE4baseEv(ptr noundef nonnull align 8 dereferenceable(8) %5) #4
  %7 = load ptr, ptr %6, align 8
  %8 = load ptr, ptr %4, align 8
  %9 = call noundef nonnull align 8 dereferenceable(8) ptr @_ZNK9__gnu_cxx17__normal_iteratorIPSt4pairIPKvPN4llvm4PassEESt6vectorIS7_SaIS7_EEE4baseEv(ptr noundef nonnull align 8 dereferenceable(8) %8) #4
  %10 = load ptr, ptr %9, align 8
  %11 = icmp ne ptr %7, %10
  ret i1 %11
}

; Function Attrs: mustprogress nounwind uwtable
define linkonce_odr hidden ptr @_ZNSt6vectorISt4pairIPKvPN4llvm4PassEESaIS6_EE3endEv(ptr noundef nonnull align 8 dereferenceable(24) %0) #0 comdat align 2 {
  %2 = alloca %"class.__gnu_cxx::__normal_iterator.606", align 8
  %3 = alloca ptr, align 8
  store ptr %0, ptr %3, align 8
  %4 = load ptr, ptr %3, align 8
  %5 = getelementptr inbounds nuw %"struct.std::_Vector_base.602", ptr %4, i32 0, i32 0
  %6 = getelementptr inbounds nuw %"struct.std::_Vector_base<std::pair<const void *, llvm::Pass *>, std::allocator<std::pair<const void *, llvm::Pass *>>>::_Vector_impl_data", ptr %5, i32 0, i32 1
  call void @_ZN9__gnu_cxx17__normal_iteratorIPSt4pairIPKvPN4llvm4PassEESt6vectorIS7_SaIS7_EEEC2ERKS8_(ptr noundef nonnull align 8 dereferenceable(8) %2, ptr noundef nonnull align 8 dereferenceable(8) %6) #4
  %7 = getelementptr inbounds nuw %"class.__gnu_cxx::__normal_iterator.606", ptr %2, i32 0, i32 0
  %8 = load ptr, ptr %7, align 8
  ret ptr %8
}

; Function Attrs: mustprogress nounwind uwtable
define linkonce_odr hidden ptr @_ZNSt6vectorISt4pairIPKvPN4llvm4PassEESaIS6_EE5beginEv(ptr noundef nonnull align 8 dereferenceable(24) %0) #0 comdat align 2 {
  %2 = alloca %"class.__gnu_cxx::__normal_iterator.606", align 8
  %3 = alloca ptr, align 8
  store ptr %0, ptr %3, align 8
  %4 = load ptr, ptr %3, align 8
  %5 = getelementptr inbounds nuw %"struct.std::_Vector_base.602", ptr %4, i32 0, i32 0
  %6 = getelementptr inbounds nuw %"struct.std::_Vector_base<std::pair<const void *, llvm::Pass *>, std::allocator<std::pair<const void *, llvm::Pass *>>>::_Vector_impl_data", ptr %5, i32 0, i32 0
  call void @_ZN9__gnu_cxx17__normal_iteratorIPSt4pairIPKvPN4llvm4PassEESt6vectorIS7_SaIS7_EEEC2ERKS8_(ptr noundef nonnull align 8 dereferenceable(8) %2, ptr noundef nonnull align 8 dereferenceable(8) %6) #4
  %7 = getelementptr inbounds nuw %"class.__gnu_cxx::__normal_iterator.606", ptr %2, i32 0, i32 0
  %8 = load ptr, ptr %7, align 8
  ret ptr %8
}

; Function Attrs: mustprogress nounwind uwtable
define linkonce_odr hidden noundef ptr @_ZN4llvm16AnalysisResolver12findImplPassEPKv(ptr noundef nonnull align 8 dereferenceable(32) %0, ptr noundef %1) #0 comdat align 2 {
  %3 = alloca ptr, align 8
  %4 = alloca ptr, align 8
  %5 = alloca ptr, align 8
  %6 = alloca ptr, align 8
  %7 = alloca %"class.__gnu_cxx::__normal_iterator.606", align 8
  %8 = alloca %"class.__gnu_cxx::__normal_iterator.606", align 8
  %9 = alloca ptr, align 8
  store ptr %0, ptr %3, align 8
  store ptr %1, ptr %4, align 8
  %10 = load ptr, ptr %3, align 8
  store ptr null, ptr %5, align 8
  %11 = getelementptr inbounds nuw %"class.llvm::AnalysisResolver", ptr %10, i32 0, i32 0
  store ptr %11, ptr %6, align 8
  %12 = load ptr, ptr %6, align 8
  %13 = call ptr @_ZNSt6vectorISt4pairIPKvPN4llvm4PassEESaIS6_EE5beginEv(ptr noundef nonnull align 8 dereferenceable(24) %12) #4
  %14 = getelementptr inbounds nuw %"class.__gnu_cxx::__normal_iterator.606", ptr %7, i32 0, i32 0
  store ptr %13, ptr %14, align 8
  %15 = load ptr, ptr %6, align 8
  %16 = call ptr @_ZNSt6vectorISt4pairIPKvPN4llvm4PassEESaIS6_EE3endEv(ptr noundef nonnull align 8 dereferenceable(24) %15) #4
  %17 = getelementptr inbounds nuw %"class.__gnu_cxx::__normal_iterator.606", ptr %8, i32 0, i32 0
  store ptr %16, ptr %17, align 8
  br label %18

18:                                               ; preds = %32, %2
  %19 = call noundef zeroext i1 @_ZN9__gnu_cxxneIPSt4pairIPKvPN4llvm4PassEESt6vectorIS7_SaIS7_EEEEbRKNS_17__normal_iteratorIT_T0_EESH_(ptr noundef nonnull align 8 dereferenceable(8) %7, ptr noundef nonnull align 8 dereferenceable(8) %8) #4
  br i1 %19, label %20, label %34

20:                                               ; preds = %18
  %21 = call noundef nonnull align 8 dereferenceable(16) ptr @_ZNK9__gnu_cxx17__normal_iteratorIPSt4pairIPKvPN4llvm4PassEESt6vectorIS7_SaIS7_EEEdeEv(ptr noundef nonnull align 8 dereferenceable(8) %7) #4
  store ptr %21, ptr %9, align 8
  %22 = load ptr, ptr %9, align 8
  %23 = getelementptr inbounds nuw %"struct.std::pair.607", ptr %22, i32 0, i32 0
  %24 = load ptr, ptr %23, align 8
  %25 = load ptr, ptr %4, align 8
  %26 = icmp eq ptr %24, %25
  br i1 %26, label %27, label %31

27:                                               ; preds = %20
  %28 = load ptr, ptr %9, align 8
  %29 = getelementptr inbounds nuw %"struct.std::pair.607", ptr %28, i32 0, i32 1
  %30 = load ptr, ptr %29, align 8
  store ptr %30, ptr %5, align 8
  br label %34

31:                                               ; preds = %20
  br label %32

32:                                               ; preds = %31
  %33 = call noundef nonnull align 8 dereferenceable(8) ptr @_ZN9__gnu_cxx17__normal_iteratorIPSt4pairIPKvPN4llvm4PassEESt6vectorIS7_SaIS7_EEEppEv(ptr noundef nonnull align 8 dereferenceable(8) %7) #4
  br label %18

34:                                               ; preds = %27, %18
  %35 = load ptr, ptr %5, align 8
  ret ptr %35
}

; Function Attrs: mustprogress nounwind uwtable
define linkonce_odr noundef nonnull align 8 dereferenceable(160) ptr @_ZNK4llvm4Pass13getAnalysisIDINS_24DominatorTreeWrapperPassEEERT_PKv(ptr noundef nonnull align 8 dereferenceable(28) %0, ptr noundef %1) #0 comdat align 2 {
  %3 = alloca ptr, align 8
  %4 = alloca ptr, align 8
  %5 = alloca ptr, align 8
  store ptr %0, ptr %3, align 8
  store ptr %1, ptr %4, align 8
  %6 = load ptr, ptr %3, align 8
  %7 = getelementptr inbounds nuw %"class.llvm::Pass", ptr %6, i32 0, i32 1
  %8 = load ptr, ptr %7, align 8
  %9 = load ptr, ptr %4, align 8
  %10 = call noundef ptr @_ZN4llvm16AnalysisResolver12findImplPassEPKv(ptr noundef nonnull align 8 dereferenceable(32) %8, ptr noundef %9)
  store ptr %10, ptr %5, align 8
  %11 = load ptr, ptr %5, align 8
  %12 = load ptr, ptr %4, align 8
  %13 = load ptr, ptr %11, align 8
  %14 = getelementptr inbounds ptr, ptr %13, i64 12
  %15 = load ptr, ptr %14, align 8
  %16 = call noundef ptr %15(ptr noundef nonnull align 8 dereferenceable(28) %11, ptr noundef %12)
  ret ptr %16
}

; Function Attrs: mustprogress nounwind uwtable
define linkonce_odr hidden noundef nonnull align 8 dereferenceable(124) ptr @_ZN4llvm24DominatorTreeWrapperPass10getDomTreeEv(ptr noundef nonnull align 8 dereferenceable(160) %0) #0 comdat align 2 {
  %2 = alloca ptr, align 8
  store ptr %0, ptr %2, align 8
  %3 = load ptr, ptr %2, align 8
  %4 = getelementptr inbounds nuw %"class.llvm::DominatorTreeWrapperPass", ptr %3, i32 0, i32 2
  ret ptr %4
}

; Function Attrs: mustprogress nounwind uwtable
define linkonce_odr noundef nonnull align 8 dereferenceable(160) ptr @_ZNK4llvm4Pass11getAnalysisINS_24DominatorTreeWrapperPassEEERT_v(ptr noundef nonnull align 8 dereferenceable(28) %0) #0 comdat align 2 {
  %2 = alloca ptr, align 8
  store ptr %0, ptr %2, align 8
  %3 = load ptr, ptr %2, align 8
  %4 = call noundef nonnull align 8 dereferenceable(160) ptr @_ZNK4llvm4Pass13getAnalysisIDINS_24DominatorTreeWrapperPassEEERT_PKv(ptr noundef nonnull align 8 dereferenceable(28) %3, ptr noundef @_ZN4llvm24DominatorTreeWrapperPass2IDE)
  ret ptr %4
}

; Function Attrs: mustprogress nounwind uwtable
define dso_local noundef zeroext i1 @_ZN4llvm19LoopInfoWrapperPass13runOnFunctionERNS_8FunctionE(ptr noundef nonnull align 8 dereferenceable(176) %0, ptr noundef nonnull align 8 dereferenceable(136) %1) unnamed_addr #0 align 2 {
  %3 = alloca ptr, align 8
  %4 = alloca ptr, align 8
  store ptr %0, ptr %3, align 8
  store ptr %1, ptr %4, align 8
  %5 = load ptr, ptr %3, align 8
  %6 = load ptr, ptr %5, align 8
  %7 = getelementptr inbounds ptr, ptr %6, i64 11
  %8 = load ptr, ptr %7, align 8
  call void %8(ptr noundef nonnull align 8 dereferenceable(176) %5)
  %9 = getelementptr inbounds nuw %"class.llvm::LoopInfoWrapperPass", ptr %5, i32 0, i32 1
  %10 = call noundef nonnull align 8 dereferenceable(160) ptr @_ZNK4llvm4Pass11getAnalysisINS_24DominatorTreeWrapperPassEEERT_v(ptr noundef nonnull align 8 dereferenceable(28) %5)
  %11 = call noundef nonnull align 8 dereferenceable(124) ptr @_ZN4llvm24DominatorTreeWrapperPass10getDomTreeEv(ptr noundef nonnull align 8 dereferenceable(160) %10)
  call void @_ZN4llvm12LoopInfoBaseINS_10BasicBlockENS_4LoopEE7analyzeERKNS_17DominatorTreeBaseIS1_Lb0EEE(ptr noundef nonnull align 8 dereferenceable(144) %9, ptr noundef nonnull align 8 dereferenceable(124) %11)
  ret i1 false
}