; Function Attrs: mustprogress nounwind uwtable
define dso_local noundef zeroext i1 @_ZN4llvm19LoopInfoWrapperPass13runOnFunctionERNS_8FunctionE(ptr noundef nonnull align 8 dereferenceable(176) %0, ptr nocapture nonnull readnone align 8 %1) unnamed_addr #0 align 2 {
  %3 = load ptr, ptr %0, align 8
  %4 = getelementptr inbounds i8, ptr %3, i64 88
  %5 = load ptr, ptr %4, align 8
  tail call void %5(ptr noundef nonnull align 8 dereferenceable(176) %0) #19
  %6 = getelementptr inbounds nuw i8, ptr %0, i64 8
  %7 = load ptr, ptr %6, align 8
  %8 = load ptr, ptr %7, align 8
  %9 = getelementptr inbounds nuw i8, ptr %7, i64 8
  %10 = load ptr, ptr %9, align 8
  %.not11.i.i.i = icmp ne ptr %8, %10
  tail call void @llvm.assume(i1 %.not11.i.i.i)
  %11 = load ptr, ptr %8, align 8
  %12 = icmp eq ptr %11, @_ZN4llvm24DominatorTreeWrapperPass2IDE
  br i1 %12, label %_ZNK4llvm4Pass11getAnalysisINS_24DominatorTreeWrapperPassEEERT_v.exit, label %.lr.ph.i.i.i

.lr.ph.i.i.i:                                     ; preds = %2, %.lr.ph.i.i.i
  %.sroa.07.012.i4.i.i = phi ptr [ %13, %.lr.ph.i.i.i ], [ %8, %2 ]
  %13 = getelementptr inbounds i8, ptr %.sroa.07.012.i4.i.i, i64 16
  %.not.i.i.i = icmp ne ptr %13, %10
  tail call void @llvm.assume(i1 %.not.i.i.i)
  %14 = load ptr, ptr %13, align 8
  %15 = icmp eq ptr %14, @_ZN4llvm24DominatorTreeWrapperPass2IDE
  br i1 %15, label %_ZNK4llvm4Pass11getAnalysisINS_24DominatorTreeWrapperPassEEERT_v.exit, label %.lr.ph.i.i.i

_ZNK4llvm4Pass11getAnalysisINS_24DominatorTreeWrapperPassEEERT_v.exit: ; preds = %.lr.ph.i.i.i, %2
  %.sroa.07.012.i.lcssa.i.i = phi ptr [ %8, %2 ], [ %13, %.lr.ph.i.i.i ]
  %16 = getelementptr inbounds nuw i8, ptr %0, i64 32
  %17 = getelementptr inbounds nuw i8, ptr %.sroa.07.012.i.lcssa.i.i, i64 8
  %18 = load ptr, ptr %17, align 8
  %19 = load ptr, ptr %18, align 8
  %20 = getelementptr inbounds i8, ptr %19, i64 96
  %21 = load ptr, ptr %20, align 8
  %22 = tail call noundef nonnull align 8 dereferenceable(160) ptr %21(ptr noundef nonnull align 8 dereferenceable(28) %18, ptr noundef nonnull @_ZN4llvm24DominatorTreeWrapperPass2IDE) #19
  %23 = getelementptr inbounds nuw i8, ptr %22, i64 32
  tail call void @_ZN4llvm12LoopInfoBaseINS_10BasicBlockENS_4LoopEE7analyzeERKNS_17DominatorTreeBaseIS1_Lb0EEE(ptr noundef nonnull align 8 dereferenceable(144) %16, ptr noundef nonnull align 8 dereferenceable(124) %23)
  ret i1 false
}